; Function Attrs: mustprogress nounwind uwtable
define hidden void @_ZN3ue28NGHolderD0Ev(ptr noundef nonnull align 8 dereferenceable(136) initializes((0, 8)) %0) unnamed_addr #2 align 2 personality ptr @__gxx_personality_v0 {
  store ptr getelementptr inbounds nuw inrange(-16, 16) (i8, ptr @_ZTVN3ue28NGHolderE, i64 16), ptr %0, align 8
  %2 = getelementptr inbounds nuw i8, ptr %0, i64 8
  invoke void @_ZN5boost9intrusive9list_implINS0_8bhtraitsIN3ue29ue2_graphINS3_8NGHolderENS3_19NFAGraphVertexPropsENS3_17NFAGraphEdgePropsEE11vertex_nodeENS0_16list_node_traitsIPvEELNS0_14link_mode_typeE1ENS0_7dft_tagELj1EEEmLb1EvE17clear_and_disposeINS8_15delete_disposerEEEvT_(ptr noundef nonnull align 8 dereferenceable(56) %2)
          to label %3 unwind label %7

3:                                                ; preds = %1
  %4 = getelementptr inbounds nuw i8, ptr %0, i64 16
  %5 = load ptr, ptr %4, align 8, !noalias !13
  %.not7.i.i.i.i.i = icmp eq ptr %5, %4
  br i1 %.not7.i.i.i.i.i, label %_ZN3ue28NGHolderD2Ev.exit, label %.lr.ph.i.i.i.i.i

.lr.ph.i.i.i.i.i:                                 ; preds = %3, %.lr.ph.i.i.i.i.i
  %.sroa.04.08.i.i.i.i.i = phi ptr [ %6, %.lr.ph.i.i.i.i.i ], [ %5, %3 ]
  %6 = load ptr, ptr %.sroa.04.08.i.i.i.i.i, align 8
  tail call void @llvm.memset.p0.i64(ptr noundef nonnull align 8 dereferenceable(16) %.sroa.04.08.i.i.i.i.i, i8 0, i64 16, i1 false)
  %.not.i.i.i.i.i = icmp eq ptr %6, %4
  br i1 %.not.i.i.i.i.i, label %_ZN3ue28NGHolderD2Ev.exit, label %.lr.ph.i.i.i.i.i, !llvm.loop !8

7:                                                ; preds = %1
  %8 = landingpad { ptr, i32 }
          catch ptr null
  %9 = extractvalue { ptr, i32 } %8, 0
  tail call void @__clang_call_terminate(ptr %9) #13
  unreachable

_ZN3ue28NGHolderD2Ev.exit:                        ; preds = %.lr.ph.i.i.i.i.i, %3
  tail call void @_ZdlPv(ptr noundef nonnull %0) #14
  ret void
}